target datalayout = "e-m:e-p270:32:32-p271:32:32-p272:64:64-i64:64-i128:128-f80:128-n8:16:32:64-S128"
target triple = "x86_64-pc-linux-gnu"

@TMPI_COMM_WORLD = external global ptr, align 8

; Function Attrs: mustprogress uwtable
define void @_Z19tMPI_Coll_root_xferP10tmpi_comm_P14tmpi_datatype_S2_mmPvS3_Pi(ptr noundef %0, ptr noundef %1, ptr noundef %2, i64 noundef %3, i64 noundef %4, ptr noundef %5, ptr noundef %6, ptr noundef %7) #0 {
  %9 = alloca ptr, align 8
  %10 = alloca ptr, align 8
  %11 = alloca ptr, align 8
  %12 = alloca i64, align 8
  %13 = alloca i64, align 8
  %14 = alloca ptr, align 8
  %15 = alloca ptr, align 8
  %16 = alloca ptr, align 8
  store ptr %0, ptr %9, align 8, !tbaa !43
  store ptr %1, ptr %10, align 8, !tbaa !62
  store ptr %2, ptr %11, align 8, !tbaa !62
  store i64 %3, ptr %12, align 8, !tbaa !63
  store i64 %4, ptr %13, align 8, !tbaa !63
  store ptr %5, ptr %14, align 8, !tbaa !65
  store ptr %6, ptr %15, align 8, !tbaa !65
  store ptr %7, ptr %16, align 8, !tbaa !45
  %17 = load i64, ptr %13, align 8, !tbaa !63
  %18 = load i64, ptr %12, align 8, !tbaa !63
  %19 = icmp ult i64 %17, %18
  br i1 %19, label %20, label %24

20:                                               ; preds = %8
  %21 = load ptr, ptr %9, align 8, !tbaa !43
  %22 = call noundef i32 @_Z10tMPI_ErrorP10tmpi_comm_i(ptr noundef %21, i32 noundef 13)
  %23 = load ptr, ptr %16, align 8, !tbaa !45
  store i32 %22, ptr %23, align 4, !tbaa !8
  br label %44

24:                                               ; preds = %8
  %25 = load ptr, ptr %11, align 8, !tbaa !62
  %26 = load ptr, ptr %10, align 8, !tbaa !62
  %27 = icmp ne ptr %25, %26
  br i1 %27, label %28, label %32

28:                                               ; preds = %24
  %29 = load ptr, ptr %9, align 8, !tbaa !43
  %30 = call noundef i32 @_Z10tMPI_ErrorP10tmpi_comm_i(ptr noundef %29, i32 noundef 18)
  %31 = load ptr, ptr %16, align 8, !tbaa !45
  store i32 %30, ptr %31, align 4, !tbaa !8
  br label %44

32:                                               ; preds = %24
  %33 = load ptr, ptr %14, align 8, !tbaa !65
  %34 = load ptr, ptr %15, align 8, !tbaa !65
  %35 = icmp eq ptr %33, %34
  br i1 %35, label %36, label %40

36:                                               ; preds = %32
  %37 = load ptr, ptr @TMPI_COMM_WORLD, align 8, !tbaa !43
  %38 = call noundef i32 @_Z10tMPI_ErrorP10tmpi_comm_i(ptr noundef %37, i32 noundef 14)
  %39 = load ptr, ptr %16, align 8, !tbaa !45
  store i32 %38, ptr %39, align 4, !tbaa !8
  br label %44

40:                                               ; preds = %32
  %41 = load ptr, ptr %15, align 8, !tbaa !65
  %42 = load ptr, ptr %14, align 8, !tbaa !65
  %43 = load i64, ptr %12, align 8, !tbaa !63
  call void @llvm.memcpy.p0.p0.i64(ptr align 1 %41, ptr align 1 %42, i64 %43, i1 false)
  br label %44

44:                                               ; preds = %40, %36, %28, %20
  ret void
}