; Function Attrs: mustprogress uwtable
define void @_Z19tMPI_Coll_root_xferP10tmpi_comm_P14tmpi_datatype_S2_mmPvS3_Pi(ptr noundef %0, ptr noundef readnone %1, ptr noundef readnone %2, i64 noundef %3, i64 noundef %4, ptr noundef readonly %5, ptr noundef writeonly %6, ptr noundef writeonly captures(none) %7) local_unnamed_addr #0 {
  %9 = icmp ult i64 %4, %3
  br i1 %9, label %10, label %12

10:                                               ; preds = %8
  %11 = tail call noundef i32 @_Z10tMPI_ErrorP10tmpi_comm_i(ptr noundef %0, i32 noundef 13)
  store i32 %11, ptr %7, align 4, !tbaa !55
  br label %21

12:                                               ; preds = %8
  %.not = icmp eq ptr %2, %1
  br i1 %.not, label %15, label %13

13:                                               ; preds = %12
  %14 = tail call noundef i32 @_Z10tMPI_ErrorP10tmpi_comm_i(ptr noundef %0, i32 noundef 18)
  store i32 %14, ptr %7, align 4, !tbaa !55
  br label %21

15:                                               ; preds = %12
  %16 = icmp eq ptr %5, %6
  br i1 %16, label %17, label %20

17:                                               ; preds = %15
  %18 = load ptr, ptr @TMPI_COMM_WORLD, align 8, !tbaa !61
  %19 = tail call noundef i32 @_Z10tMPI_ErrorP10tmpi_comm_i(ptr noundef %18, i32 noundef 14)
  store i32 %19, ptr %7, align 4, !tbaa !55
  br label %21

20:                                               ; preds = %15
  tail call void @llvm.memcpy.p0.p0.i64(ptr align 1 %6, ptr align 1 %5, i64 %3, i1 false)
  br label %21

21:                                               ; preds = %20, %17, %13, %10
  ret void
}